target datalayout = "e-m:e-p270:32:32-p271:32:32-p272:64:64-i64:64-i128:128-f80:128-n8:16:32:64-S128"
target triple = "x86_64-pc-linux-gnu"

@.str.15 = private unnamed_addr constant [8 x i8] c"Success\00", align 1
@.str.16 = private unnamed_addr constant [39 x i8] c"A fence or query has not yet completed\00", align 1
@.str.17 = private unnamed_addr constant [57 x i8] c"A wait operation has not completed in the specified time\00", align 1
@.str.18 = private unnamed_addr constant [21 x i8] c"An event is signaled\00", align 1
@.str.19 = private unnamed_addr constant [23 x i8] c"An event is unsignaled\00", align 1
@.str.20 = private unnamed_addr constant [44 x i8] c"A return array was too small for the result\00", align 1
@.str.21 = private unnamed_addr constant [36 x i8] c"A host memory allocation has failed\00", align 1
@.str.22 = private unnamed_addr constant [38 x i8] c"A device memory allocation has failed\00", align 1
@.str.23 = private unnamed_addr constant [87 x i8] c"Initialization of an object could not be completed for implementation-specific reasons\00", align 1
@.str.24 = private unnamed_addr constant [45 x i8] c"The logical or physical device has been lost\00", align 1
@.str.25 = private unnamed_addr constant [38 x i8] c"Mapping of a memory object has failed\00", align 1
@.str.26 = private unnamed_addr constant [56 x i8] c"A requested layer is not present or could not be loaded\00", align 1
@.str.27 = private unnamed_addr constant [39 x i8] c"A requested extension is not supported\00", align 1
@.str.28 = private unnamed_addr constant [37 x i8] c"A requested feature is not supported\00", align 1
@.str.29 = private unnamed_addr constant [92 x i8] c"The requested version of Vulkan is not supported by the driver or is otherwise incompatible\00", align 1
@.str.30 = private unnamed_addr constant [55 x i8] c"Too many objects of the type have already been created\00", align 1
@.str.31 = private unnamed_addr constant [51 x i8] c"A requested format is not supported on this device\00", align 1
@.str.32 = private unnamed_addr constant [33 x i8] c"A surface is no longer available\00", align 1
@.str.33 = private unnamed_addr constant [84 x i8] c"A swapchain no longer matches the surface properties exactly, but can still be used\00", align 1
@.str.34 = private unnamed_addr constant [87 x i8] c"A surface has changed in such a way that it is no longer compatible with the swapchain\00", align 1
@.str.35 = private unnamed_addr constant [79 x i8] c"The display used by a swapchain does not use the same presentable image layout\00", align 1
@.str.36 = private unnamed_addr constant [93 x i8] c"The requested window is already connected to a VkSurfaceKHR, or to some other non-Vulkan API\00", align 1
@.str.37 = private unnamed_addr constant [34 x i8] c"A validation layer found an error\00", align 1
@.str.38 = private unnamed_addr constant [28 x i8] c"ERROR: UNKNOWN VULKAN ERROR\00", align 1

; Function Attrs: nounwind uwtable
define hidden ptr @_glfwGetVulkanResultString(i32 noundef %0) #0 {
  %2 = alloca ptr, align 8
  %3 = alloca i32, align 4
  store i32 %0, ptr %3, align 4, !tbaa !3
  %4 = load i32, ptr %3, align 4, !tbaa !3
  switch i32 %4, label %28 [
    i32 0, label %5
    i32 1, label %6
    i32 2, label %7
    i32 3, label %8
    i32 4, label %9
    i32 5, label %10
    i32 -1, label %11
    i32 -2, label %12
    i32 -3, label %13
    i32 -4, label %14
    i32 -5, label %15
    i32 -6, label %16
    i32 -7, label %17
    i32 -8, label %18
    i32 -9, label %19
    i32 -10, label %20
    i32 -11, label %21
    i32 -1000000000, label %22
    i32 1000001003, label %23
    i32 -1000001004, label %24
    i32 -1000003001, label %25
    i32 -1000000001, label %26
    i32 -1000011001, label %27
  ]

5:                                                ; preds = %1
  store ptr @.str.15, ptr %2, align 8
  br label %29

6:                                                ; preds = %1
  store ptr @.str.16, ptr %2, align 8
  br label %29

7:                                                ; preds = %1
  store ptr @.str.17, ptr %2, align 8
  br label %29

8:                                                ; preds = %1
  store ptr @.str.18, ptr %2, align 8
  br label %29

9:                                                ; preds = %1
  store ptr @.str.19, ptr %2, align 8
  br label %29

10:                                               ; preds = %1
  store ptr @.str.20, ptr %2, align 8
  br label %29

11:                                               ; preds = %1
  store ptr @.str.21, ptr %2, align 8
  br label %29

12:                                               ; preds = %1
  store ptr @.str.22, ptr %2, align 8
  br label %29

13:                                               ; preds = %1
  store ptr @.str.23, ptr %2, align 8
  br label %29

14:                                               ; preds = %1
  store ptr @.str.24, ptr %2, align 8
  br label %29

15:                                               ; preds = %1
  store ptr @.str.25, ptr %2, align 8
  br label %29

16:                                               ; preds = %1
  store ptr @.str.26, ptr %2, align 8
  br label %29

17:                                               ; preds = %1
  store ptr @.str.27, ptr %2, align 8
  br label %29

18:                                               ; preds = %1
  store ptr @.str.28, ptr %2, align 8
  br label %29

19:                                               ; preds = %1
  store ptr @.str.29, ptr %2, align 8
  br label %29

20:                                               ; preds = %1
  store ptr @.str.30, ptr %2, align 8
  br label %29

21:                                               ; preds = %1
  store ptr @.str.31, ptr %2, align 8
  br label %29

22:                                               ; preds = %1
  store ptr @.str.32, ptr %2, align 8
  br label %29

23:                                               ; preds = %1
  store ptr @.str.33, ptr %2, align 8
  br label %29

24:                                               ; preds = %1
  store ptr @.str.34, ptr %2, align 8
  br label %29

25:                                               ; preds = %1
  store ptr @.str.35, ptr %2, align 8
  br label %29

26:                                               ; preds = %1
  store ptr @.str.36, ptr %2, align 8
  br label %29

27:                                               ; preds = %1
  store ptr @.str.37, ptr %2, align 8
  br label %29

28:                                               ; preds = %1
  store ptr @.str.38, ptr %2, align 8
  br label %29

29:                                               ; preds = %28, %27, %26, %25, %24, %23, %22, %21, %20, %19, %18, %17, %16, %15, %14, %13, %12, %11, %10, %9, %8, %7, %6, %5
  %30 = load ptr, ptr %2, align 8
  ret ptr %30
}