; Function Attrs: mustprogress nofree norecurse nosync nounwind willreturn memory(none) uwtable
define hidden noundef nonnull ptr @_glfwGetVulkanResultString(i32 noundef %0) local_unnamed_addr #3 {
  switch i32 %0, label %24 [
    i32 0, label %25
    i32 1, label %2
    i32 2, label %3
    i32 3, label %4
    i32 4, label %5
    i32 5, label %6
    i32 -1, label %7
    i32 -2, label %8
    i32 -3, label %9
    i32 -4, label %10
    i32 -5, label %11
    i32 -6, label %12
    i32 -7, label %13
    i32 -8, label %14
    i32 -9, label %15
    i32 -10, label %16
    i32 -11, label %17
    i32 -1000000000, label %18
    i32 1000001003, label %19
    i32 -1000001004, label %20
    i32 -1000003001, label %21
    i32 -1000000001, label %22
    i32 -1000011001, label %23
  ]

2:                                                ; preds = %1
  br label %25

3:                                                ; preds = %1
  br label %25

4:                                                ; preds = %1
  br label %25

5:                                                ; preds = %1
  br label %25

6:                                                ; preds = %1
  br label %25

7:                                                ; preds = %1
  br label %25

8:                                                ; preds = %1
  br label %25

9:                                                ; preds = %1
  br label %25

10:                                               ; preds = %1
  br label %25

11:                                               ; preds = %1
  br label %25

12:                                               ; preds = %1
  br label %25

13:                                               ; preds = %1
  br label %25

14:                                               ; preds = %1
  br label %25

15:                                               ; preds = %1
  br label %25

16:                                               ; preds = %1
  br label %25

17:                                               ; preds = %1
  br label %25

18:                                               ; preds = %1
  br label %25

19:                                               ; preds = %1
  br label %25

20:                                               ; preds = %1
  br label %25

21:                                               ; preds = %1
  br label %25

22:                                               ; preds = %1
  br label %25

23:                                               ; preds = %1
  br label %25

24:                                               ; preds = %1
  br label %25

25:                                               ; preds = %1, %24, %23, %22, %21, %20, %19, %18, %17, %16, %15, %14, %13, %12, %11, %10, %9, %8, %7, %6, %5, %4, %3, %2
  %.0 = phi ptr [ @.str.38, %24 ], [ @.str.37, %23 ], [ @.str.36, %22 ], [ @.str.35, %21 ], [ @.str.34, %20 ], [ @.str.33, %19 ], [ @.str.32, %18 ], [ @.str.31, %17 ], [ @.str.30, %16 ], [ @.str.29, %15 ], [ @.str.28, %14 ], [ @.str.27, %13 ], [ @.str.26, %12 ], [ @.str.25, %11 ], [ @.str.24, %10 ], [ @.str.23, %9 ], [ @.str.22, %8 ], [ @.str.21, %7 ], [ @.str.20, %6 ], [ @.str.19, %5 ], [ @.str.18, %4 ], [ @.str.17, %3 ], [ @.str.16, %2 ], [ @.str.15, %1 ]
  ret ptr %.0
}